; Function Attrs: null_pointer_is_valid sspstrong uwtable
define internal fastcc void @dissect_source_address_parameter(ptr noundef %0, ptr noundef %1, ptr noundef %2, ptr noundef captures(address_is_null) %3) unnamed_addr #0 {
  %5 = tail call zeroext i16 @tvb_get_ntohs(ptr noundef %0, i32 noundef 4)
  store i16 %5, ptr @sua_ri, align 2
  %.not = icmp eq ptr %2, null
  br i1 %.not, label %.split, label %.split20

.split20:                                         ; preds = %4
  %6 = load i32, ptr @hf_sua_source_address_routing_indicator, align 4
  %7 = tail call ptr @proto_tree_add_item(ptr noundef nonnull %2, i32 noundef %6, ptr noundef %0, i32 noundef 4, i32 noundef 2, i32 noundef 0)
  %8 = load i32, ptr @ett_sua_source_address_indicator, align 4
  %9 = tail call ptr @proto_tree_add_subtree(ptr noundef nonnull %2, ptr noundef %0, i32 noundef 6, i32 noundef 2, i32 noundef %8, ptr noundef null, ptr noundef nonnull @.str.458)
  %10 = load i32, ptr @hf_sua_source_address_reserved_bits, align 4
  %11 = tail call ptr @proto_tree_add_item(ptr noundef %9, i32 noundef %10, ptr noundef %0, i32 noundef 6, i32 noundef 2, i32 noundef 0)
  %12 = load i32, ptr @hf_sua_source_address_gt_bit, align 4
  %13 = tail call ptr @proto_tree_add_item(ptr noundef %9, i32 noundef %12, ptr noundef %0, i32 noundef 6, i32 noundef 2, i32 noundef 0)
  %14 = load i32, ptr @hf_sua_source_address_pc_bit, align 4
  %15 = tail call ptr @proto_tree_add_item(ptr noundef %9, i32 noundef %14, ptr noundef %0, i32 noundef 6, i32 noundef 2, i32 noundef 0)
  %16 = load i32, ptr @hf_sua_source_address_ssn_bit, align 4
  %17 = tail call ptr @proto_tree_add_item(ptr noundef %9, i32 noundef %16, ptr noundef %0, i32 noundef 6, i32 noundef 2, i32 noundef 0)
  br label %.split

.split:                                           ; preds = %4, %.split20
  %.sink21 = phi ptr [ %2, %.split20 ], [ null, %4 ]
  %18 = tail call ptr @tvb_new_subset_remaining(ptr noundef %0, i32 noundef 8)
  tail call fastcc void @dissect_parameters(ptr noundef %18, ptr noundef %1, ptr noundef %.sink21, ptr noundef null, ptr noundef %3, ptr noundef null)
  ret void
}